---
triple:          'arm64-apple-darwin'
binary-path:     '/Users/won/Desktop/cpp-study/00_Backjoon/test'
relocations:
  - { offsetInCU: 0x49, offset: 0x49, size: 0x8, addend: 0x0, symName: __ZNSt3__1L19piecewise_constructE, symObjAddr: 0x2C68, symBinAddr: 0x100003D44, symSize: 0x0 }
  - { offsetInCU: 0x41CD, offset: 0x41CD, size: 0x8, addend: 0x0, symName: __ZNSt3__119__debug_db_insert_cB7v160006INS_13unordered_mapIiiNS_4hashIiEENS_8equal_toIiEENS_9allocatorINS_4pairIKiiEEEEEEEEvPT_, symObjAddr: 0x1F0, symBinAddr: 0x1000011B8, symSize: 0x10 }
  - { offsetInCU: 0x41FE, offset: 0x41FE, size: 0x8, addend: 0x0, symName: __ZNSt3__118__debug_db_erase_cB7v160006INS_12__hash_tableINS_17__hash_value_typeIiiEENS_22__unordered_map_hasherIiS3_NS_4hashIiEENS_8equal_toIiEELb1EEENS_21__unordered_map_equalIiS3_S8_S6_Lb1EEENS_9allocatorIS3_EEEEEEvPT_, symObjAddr: 0x97C, symBinAddr: 0x100001944, symSize: 0x10 }
  - { offsetInCU: 0x4262, offset: 0x4262, size: 0x8, addend: 0x0, symName: __ZNSt3__17launderB7v160006INS_4pairIKiiEEEEPT_S5_, symObjAddr: 0xAE0, symBinAddr: 0x100001AA8, symSize: 0x24 }
  - { offsetInCU: 0x4299, offset: 0x4299, size: 0x8, addend: 0x0, symName: __ZNSt3__19__launderB7v160006INS_4pairIKiiEEEEPT_S5_, symObjAddr: 0xB04, symBinAddr: 0x100001ACC, symSize: 0x14 }
  - { offsetInCU: 0x42D0, offset: 0x42D0, size: 0x8, addend: 0x0, symName: __ZNSt3__119__libcpp_deallocateB7v160006EPvmm, symObjAddr: 0xB5C, symBinAddr: 0x100001B24, symSize: 0x60 }
  - { offsetInCU: 0x4335, offset: 0x4335, size: 0x8, addend: 0x0, symName: __ZNSt3__124__is_overaligned_for_newB7v160006Em, symObjAddr: 0xBBC, symBinAddr: 0x100001B84, symSize: 0x20 }
  - { offsetInCU: 0x4363, offset: 0x4363, size: 0x8, addend: 0x0, symName: __ZNSt3__127__do_deallocate_handle_sizeB7v160006IJSt11align_val_tEEEvPvmDpT_, symObjAddr: 0xBDC, symBinAddr: 0x100001BA4, symSize: 0x30 }
  - { offsetInCU: 0x43B6, offset: 0x43B6, size: 0x8, addend: 0x0, symName: __ZNSt3__127__do_deallocate_handle_sizeB7v160006IJEEEvPvmDpT_, symObjAddr: 0xC0C, symBinAddr: 0x100001BD4, symSize: 0x28 }
  - { offsetInCU: 0x43F4, offset: 0x43F4, size: 0x8, addend: 0x0, symName: __ZNSt3__124__libcpp_operator_deleteB7v160006IJPvSt11align_val_tEEEvDpT_, symObjAddr: 0xC34, symBinAddr: 0x100001BFC, symSize: 0x2C }
  - { offsetInCU: 0x443D, offset: 0x443D, size: 0x8, addend: 0x0, symName: __ZNSt3__124__libcpp_operator_deleteB7v160006IJPvEEEvDpT_, symObjAddr: 0xC60, symBinAddr: 0x100001C28, symSize: 0x24 }
  - { offsetInCU: 0x44A9, offset: 0x44A9, size: 0x8, addend: 0x0, symName: __ZNSt3__116forward_as_tupleB7v160006IJiEEENS_5tupleIJDpOT_EEES4_, symObjAddr: 0x13FC, symBinAddr: 0x1000023C4, symSize: 0x2C }
  - { offsetInCU: 0x44E2, offset: 0x44E2, size: 0x8, addend: 0x0, symName: __ZNSt3__116forward_as_tupleB7v160006IJEEENS_5tupleIJDpOT_EEES4_, symObjAddr: 0x1428, symBinAddr: 0x1000023F0, symSize: 0x4 }
  - { offsetInCU: 0x4506, offset: 0x4506, size: 0x8, addend: 0x0, symName: __ZNSt3__116__constrain_hashB7v160006Emm, symObjAddr: 0x14DC, symBinAddr: 0x1000024A4, symSize: 0x98 }
  - { offsetInCU: 0x4540, offset: 0x4540, size: 0x8, addend: 0x0, symName: __ZNSt3__13maxB7v160006ImEERKT_S3_S3_, symObjAddr: 0x17FC, symBinAddr: 0x1000027C4, symSize: 0x2C }
  - { offsetInCU: 0x4583, offset: 0x4583, size: 0x8, addend: 0x0, symName: __ZNSt3__116__is_hash_power2B7v160006Em, symObjAddr: 0x1828, symBinAddr: 0x1000027F0, symSize: 0x50 }
  - { offsetInCU: 0x45AF, offset: 0x45AF, size: 0x8, addend: 0x0, symName: __ZNSt3__17launderB7v160006IKNS_4pairIKiiEEEEPT_S6_, symObjAddr: 0x1BC4, symBinAddr: 0x100002B8C, symSize: 0x24 }
  - { offsetInCU: 0x45E6, offset: 0x45E6, size: 0x8, addend: 0x0, symName: __ZNSt3__19__launderB7v160006IKNS_4pairIKiiEEEEPT_S6_, symObjAddr: 0x1BE8, symBinAddr: 0x100002BB0, symSize: 0x14 }
  - { offsetInCU: 0x463B, offset: 0x463B, size: 0x8, addend: 0x0, symName: __ZNSt3__117__libcpp_allocateB7v160006Emm, symObjAddr: 0x1DC8, symBinAddr: 0x100002D90, symSize: 0x60 }
  - { offsetInCU: 0x4695, offset: 0x4695, size: 0x8, addend: 0x0, symName: __ZNSt3__121__libcpp_operator_newB7v160006IJmSt11align_val_tEEEPvDpT_, symObjAddr: 0x1E40, symBinAddr: 0x100002E08, symSize: 0x2C }
  - { offsetInCU: 0x46E2, offset: 0x46E2, size: 0x8, addend: 0x0, symName: __ZNSt3__121__libcpp_operator_newB7v160006IJmEEEPvDpT_, symObjAddr: 0x1E6C, symBinAddr: 0x100002E34, symSize: 0x24 }
  - { offsetInCU: 0x4726, offset: 0x4726, size: 0x8, addend: 0x0, symName: __ZNSt3__13getB7v160006ILm0EJOiEEERNS_13tuple_elementIXT_ENS_5tupleIJDpT0_EEEE4typeERS6_, symObjAddr: 0x20E8, symBinAddr: 0x1000030B0, symSize: 0x24 }
  - { offsetInCU: 0x4769, offset: 0x4769, size: 0x8, addend: 0x0, symName: __ZNSt3__116__next_hash_pow2B7v160006Em, symObjAddr: 0x25F4, symBinAddr: 0x1000035BC, symSize: 0x6C }
  - { offsetInCU: 0x4795, offset: 0x4795, size: 0x8, addend: 0x0, symName: __ZNSt3__125__debug_db_invalidate_allB7v160006INS_12__hash_tableINS_17__hash_value_typeIiiEENS_22__unordered_map_hasherIiS3_NS_4hashIiEENS_8equal_toIiEELb1EEENS_21__unordered_map_equalIiS3_S8_S6_Lb1EEENS_9allocatorIS3_EEEEEEvPT_, symObjAddr: 0x2660, symBinAddr: 0x100003628, symSize: 0x10 }
  - { offsetInCU: 0x47E2, offset: 0x47E2, size: 0x8, addend: 0x0, symName: __ZNSt3__112__libcpp_clzB7v160006Em, symObjAddr: 0x27C8, symBinAddr: 0x100003790, symSize: 0x1C }
  - { offsetInCU: 0x480E, offset: 0x480E, size: 0x8, addend: 0x0, symName: __ZNSt3__13maxB7v160006ImNS_6__lessImmEEEERKT_S5_S5_T0_, symObjAddr: 0x27E4, symBinAddr: 0x1000037AC, symSize: 0x54 }
  - { offsetInCU: 0x4917, offset: 0x4917, size: 0x8, addend: 0x0, symName: __ZSt28__throw_bad_array_new_lengthB7v160006v, symObjAddr: 0x1D94, symBinAddr: 0x100002D5C, symSize: 0x34 }
  - { offsetInCU: 0x6FED, offset: 0x6FED, size: 0x8, addend: 0x0, symName: _main, symObjAddr: 0x0, symBinAddr: 0x100000FC8, symSize: 0xB0 }
  - { offsetInCU: 0x70AF, offset: 0x70AF, size: 0x8, addend: 0x0, symName: __ZNSt3__113unordered_mapIiiNS_4hashIiEENS_8equal_toIiEENS_9allocatorINS_4pairIKiiEEEEEC1B7v160006Ev, symObjAddr: 0xB0, symBinAddr: 0x100001078, symSize: 0x2C }
  - { offsetInCU: 0x70D7, offset: 0x70D7, size: 0x8, addend: 0x0, symName: __ZNSt3__113unordered_mapIiiNS_4hashIiEENS_8equal_toIiEENS_9allocatorINS_4pairIKiiEEEEEixEOi, symObjAddr: 0xDC, symBinAddr: 0x1000010A4, symSize: 0x80 }
  - { offsetInCU: 0x710C, offset: 0x710C, size: 0x8, addend: 0x0, symName: __ZNSt3__113unordered_mapIiiNS_4hashIiEENS_8equal_toIiEENS_9allocatorINS_4pairIKiiEEEEED1B7v160006Ev, symObjAddr: 0x15C, symBinAddr: 0x100001124, symSize: 0x2C }
  - { offsetInCU: 0x7134, offset: 0x7134, size: 0x8, addend: 0x0, symName: __ZNSt3__113unordered_mapIiiNS_4hashIiEENS_8equal_toIiEENS_9allocatorINS_4pairIKiiEEEEEC2B7v160006Ev, symObjAddr: 0x188, symBinAddr: 0x100001150, symSize: 0x3C }
  - { offsetInCU: 0x715C, offset: 0x715C, size: 0x8, addend: 0x0, symName: __ZNSt3__112__hash_tableINS_17__hash_value_typeIiiEENS_22__unordered_map_hasherIiS2_NS_4hashIiEENS_8equal_toIiEELb1EEENS_21__unordered_map_equalIiS2_S7_S5_Lb1EEENS_9allocatorIS2_EEEC1Ev, symObjAddr: 0x1C4, symBinAddr: 0x10000118C, symSize: 0x2C }
  - { offsetInCU: 0x7186, offset: 0x7186, size: 0x8, addend: 0x0, symName: __ZNSt3__112__hash_tableINS_17__hash_value_typeIiiEENS_22__unordered_map_hasherIiS2_NS_4hashIiEENS_8equal_toIiEELb1EEENS_21__unordered_map_equalIiS2_S7_S5_Lb1EEENS_9allocatorIS2_EEEC2Ev, symObjAddr: 0x20C, symBinAddr: 0x1000011D4, symSize: 0x7C }
  - { offsetInCU: 0x71B0, offset: 0x71B0, size: 0x8, addend: 0x0, symName: __ZNSt3__110unique_ptrIA_PNS_16__hash_node_baseIPNS_11__hash_nodeINS_17__hash_value_typeIiiEEPvEEEENS_25__bucket_list_deallocatorINS_9allocatorIS9_EEEEEC1B7v160006ILb1EvEEv, symObjAddr: 0x288, symBinAddr: 0x100001250, symSize: 0x2C }
  - { offsetInCU: 0x71E3, offset: 0x71E3, size: 0x8, addend: 0x0, symName: __ZNSt3__117__compressed_pairINS_16__hash_node_baseIPNS_11__hash_nodeINS_17__hash_value_typeIiiEEPvEEEENS_9allocatorIS6_EEEC1B7v160006ILb1EvEEv, symObjAddr: 0x2B4, symBinAddr: 0x10000127C, symSize: 0x2C }
  - { offsetInCU: 0x721B, offset: 0x721B, size: 0x8, addend: 0x0, symName: __ZNSt3__117__compressed_pairImNS_22__unordered_map_hasherIiNS_17__hash_value_typeIiiEENS_4hashIiEENS_8equal_toIiEELb1EEEEC1B7v160006IiNS_18__default_init_tagEEEOT_OT0_, symObjAddr: 0x2E0, symBinAddr: 0x1000012A8, symSize: 0x3C }
  - { offsetInCU: 0x7276, offset: 0x7276, size: 0x8, addend: 0x0, symName: __ZNSt3__117__compressed_pairIfNS_21__unordered_map_equalIiNS_17__hash_value_typeIiiEENS_8equal_toIiEENS_4hashIiEELb1EEEEC1B7v160006IfNS_18__default_init_tagEEEOT_OT0_, symObjAddr: 0x31C, symBinAddr: 0x1000012E4, symSize: 0x3C }
  - { offsetInCU: 0x72CC, offset: 0x72CC, size: 0x8, addend: 0x0, symName: __ZNSt3__110unique_ptrIA_PNS_16__hash_node_baseIPNS_11__hash_nodeINS_17__hash_value_typeIiiEEPvEEEENS_25__bucket_list_deallocatorINS_9allocatorIS9_EEEEEC2B7v160006ILb1EvEEv, symObjAddr: 0x358, symBinAddr: 0x100001320, symSize: 0x3C }
  - { offsetInCU: 0x7304, offset: 0x7304, size: 0x8, addend: 0x0, symName: __ZNSt3__117__compressed_pairIPPNS_16__hash_node_baseIPNS_11__hash_nodeINS_17__hash_value_typeIiiEEPvEEEENS_25__bucket_list_deallocatorINS_9allocatorIS9_EEEEEC1B7v160006INS_16__value_init_tagESH_EEOT_OT0_, symObjAddr: 0x394, symBinAddr: 0x10000135C, symSize: 0x3C }
  - { offsetInCU: 0x735A, offset: 0x735A, size: 0x8, addend: 0x0, symName: __ZNSt3__117__compressed_pairIPPNS_16__hash_node_baseIPNS_11__hash_nodeINS_17__hash_value_typeIiiEEPvEEEENS_25__bucket_list_deallocatorINS_9allocatorIS9_EEEEEC2B7v160006INS_16__value_init_tagESH_EEOT_OT0_, symObjAddr: 0x3D0, symBinAddr: 0x100001398, symSize: 0x40 }
  - { offsetInCU: 0x73B0, offset: 0x73B0, size: 0x8, addend: 0x0, symName: __ZNSt3__122__compressed_pair_elemIPPNS_16__hash_node_baseIPNS_11__hash_nodeINS_17__hash_value_typeIiiEEPvEEEELi0ELb0EEC2B7v160006ENS_16__value_init_tagE, symObjAddr: 0x410, symBinAddr: 0x1000013D8, symSize: 0x18 }
  - { offsetInCU: 0x73E2, offset: 0x73E2, size: 0x8, addend: 0x0, symName: __ZNSt3__122__compressed_pair_elemINS_25__bucket_list_deallocatorINS_9allocatorIPNS_16__hash_node_baseIPNS_11__hash_nodeINS_17__hash_value_typeIiiEEPvEEEEEEEELi1ELb0EEC2B7v160006ENS_16__value_init_tagE, symObjAddr: 0x428, symBinAddr: 0x1000013F0, symSize: 0x2C }
  - { offsetInCU: 0x7414, offset: 0x7414, size: 0x8, addend: 0x0, symName: __ZNSt3__125__bucket_list_deallocatorINS_9allocatorIPNS_16__hash_node_baseIPNS_11__hash_nodeINS_17__hash_value_typeIiiEEPvEEEEEEEC1B7v160006Ev, symObjAddr: 0x454, symBinAddr: 0x10000141C, symSize: 0x2C }
  - { offsetInCU: 0x743C, offset: 0x743C, size: 0x8, addend: 0x0, symName: __ZNSt3__125__bucket_list_deallocatorINS_9allocatorIPNS_16__hash_node_baseIPNS_11__hash_nodeINS_17__hash_value_typeIiiEEPvEEEEEEEC2B7v160006Ev, symObjAddr: 0x480, symBinAddr: 0x100001448, symSize: 0x40 }
  - { offsetInCU: 0x7464, offset: 0x7464, size: 0x8, addend: 0x0, symName: __ZNSt3__117__compressed_pairImNS_9allocatorIPNS_16__hash_node_baseIPNS_11__hash_nodeINS_17__hash_value_typeIiiEEPvEEEEEEEC1B7v160006IiNS_18__default_init_tagEEEOT_OT0_, symObjAddr: 0x4C0, symBinAddr: 0x100001488, symSize: 0x3C }
  - { offsetInCU: 0x74BA, offset: 0x74BA, size: 0x8, addend: 0x0, symName: __ZNSt3__117__compressed_pairImNS_9allocatorIPNS_16__hash_node_baseIPNS_11__hash_nodeINS_17__hash_value_typeIiiEEPvEEEEEEEC2B7v160006IiNS_18__default_init_tagEEEOT_OT0_, symObjAddr: 0x4FC, symBinAddr: 0x1000014C4, symSize: 0x40 }
  - { offsetInCU: 0x7510, offset: 0x7510, size: 0x8, addend: 0x0, symName: __ZNSt3__122__compressed_pair_elemImLi0ELb0EEC2B7v160006IivEEOT_, symObjAddr: 0x53C, symBinAddr: 0x100001504, symSize: 0x24 }
  - { offsetInCU: 0x7550, offset: 0x7550, size: 0x8, addend: 0x0, symName: __ZNSt3__122__compressed_pair_elemINS_9allocatorIPNS_16__hash_node_baseIPNS_11__hash_nodeINS_17__hash_value_typeIiiEEPvEEEEEELi1ELb1EEC2B7v160006ENS_18__default_init_tagE, symObjAddr: 0x560, symBinAddr: 0x100001528, symSize: 0x2C }
  - { offsetInCU: 0x7582, offset: 0x7582, size: 0x8, addend: 0x0, symName: __ZNSt3__19allocatorIPNS_16__hash_node_baseIPNS_11__hash_nodeINS_17__hash_value_typeIiiEEPvEEEEEC2B7v160006Ev, symObjAddr: 0x58C, symBinAddr: 0x100001554, symSize: 0x2C }
  - { offsetInCU: 0x75AA, offset: 0x75AA, size: 0x8, addend: 0x0, symName: __ZNSt3__116__non_trivial_ifILb1ENS_9allocatorIPNS_16__hash_node_baseIPNS_11__hash_nodeINS_17__hash_value_typeIiiEEPvEEEEEEEC2B7v160006Ev, symObjAddr: 0x5B8, symBinAddr: 0x100001580, symSize: 0x14 }
  - { offsetInCU: 0x75D2, offset: 0x75D2, size: 0x8, addend: 0x0, symName: __ZNSt3__117__compressed_pairINS_16__hash_node_baseIPNS_11__hash_nodeINS_17__hash_value_typeIiiEEPvEEEENS_9allocatorIS6_EEEC2B7v160006ILb1EvEEv, symObjAddr: 0x5CC, symBinAddr: 0x100001594, symSize: 0x34 }
  - { offsetInCU: 0x7605, offset: 0x7605, size: 0x8, addend: 0x0, symName: __ZNSt3__122__compressed_pair_elemINS_16__hash_node_baseIPNS_11__hash_nodeINS_17__hash_value_typeIiiEEPvEEEELi0ELb0EEC2B7v160006ENS_16__value_init_tagE, symObjAddr: 0x600, symBinAddr: 0x1000015C8, symSize: 0x2C }
  - { offsetInCU: 0x7637, offset: 0x7637, size: 0x8, addend: 0x0, symName: __ZNSt3__122__compressed_pair_elemINS_9allocatorINS_11__hash_nodeINS_17__hash_value_typeIiiEEPvEEEELi1ELb1EEC2B7v160006ENS_16__value_init_tagE, symObjAddr: 0x62C, symBinAddr: 0x1000015F4, symSize: 0x2C }
  - { offsetInCU: 0x7669, offset: 0x7669, size: 0x8, addend: 0x0, symName: __ZNSt3__116__hash_node_baseIPNS_11__hash_nodeINS_17__hash_value_typeIiiEEPvEEEC1B7v160006Ev, symObjAddr: 0x658, symBinAddr: 0x100001620, symSize: 0x2C }
  - { offsetInCU: 0x7691, offset: 0x7691, size: 0x8, addend: 0x0, symName: __ZNSt3__116__hash_node_baseIPNS_11__hash_nodeINS_17__hash_value_typeIiiEEPvEEEC2B7v160006Ev, symObjAddr: 0x684, symBinAddr: 0x10000164C, symSize: 0x18 }
  - { offsetInCU: 0x76B9, offset: 0x76B9, size: 0x8, addend: 0x0, symName: __ZNSt3__19allocatorINS_11__hash_nodeINS_17__hash_value_typeIiiEEPvEEEC2B7v160006Ev, symObjAddr: 0x69C, symBinAddr: 0x100001664, symSize: 0x2C }
  - { offsetInCU: 0x76E1, offset: 0x76E1, size: 0x8, addend: 0x0, symName: __ZNSt3__116__non_trivial_ifILb1ENS_9allocatorINS_11__hash_nodeINS_17__hash_value_typeIiiEEPvEEEEEC2B7v160006Ev, symObjAddr: 0x6C8, symBinAddr: 0x100001690, symSize: 0x14 }
  - { offsetInCU: 0x7709, offset: 0x7709, size: 0x8, addend: 0x0, symName: __ZNSt3__117__compressed_pairImNS_22__unordered_map_hasherIiNS_17__hash_value_typeIiiEENS_4hashIiEENS_8equal_toIiEELb1EEEEC2B7v160006IiNS_18__default_init_tagEEEOT_OT0_, symObjAddr: 0x6DC, symBinAddr: 0x1000016A4, symSize: 0x40 }
  - { offsetInCU: 0x775F, offset: 0x775F, size: 0x8, addend: 0x0, symName: __ZNSt3__122__compressed_pair_elemINS_22__unordered_map_hasherIiNS_17__hash_value_typeIiiEENS_4hashIiEENS_8equal_toIiEELb1EEELi1ELb1EEC2B7v160006ENS_18__default_init_tagE, symObjAddr: 0x71C, symBinAddr: 0x1000016E4, symSize: 0x2C }
  - { offsetInCU: 0x7791, offset: 0x7791, size: 0x8, addend: 0x0, symName: __ZNSt3__122__unordered_map_hasherIiNS_17__hash_value_typeIiiEENS_4hashIiEENS_8equal_toIiEELb1EEC2B7v160006Ev, symObjAddr: 0x748, symBinAddr: 0x100001710, symSize: 0x14 }
  - { offsetInCU: 0x77B9, offset: 0x77B9, size: 0x8, addend: 0x0, symName: __ZNSt3__117__compressed_pairIfNS_21__unordered_map_equalIiNS_17__hash_value_typeIiiEENS_8equal_toIiEENS_4hashIiEELb1EEEEC2B7v160006IfNS_18__default_init_tagEEEOT_OT0_, symObjAddr: 0x75C, symBinAddr: 0x100001724, symSize: 0x40 }
  - { offsetInCU: 0x780F, offset: 0x780F, size: 0x8, addend: 0x0, symName: __ZNSt3__122__compressed_pair_elemIfLi0ELb0EEC2B7v160006IfvEEOT_, symObjAddr: 0x79C, symBinAddr: 0x100001764, symSize: 0x24 }
  - { offsetInCU: 0x784F, offset: 0x784F, size: 0x8, addend: 0x0, symName: __ZNSt3__122__compressed_pair_elemINS_21__unordered_map_equalIiNS_17__hash_value_typeIiiEENS_8equal_toIiEENS_4hashIiEELb1EEELi1ELb1EEC2B7v160006ENS_18__default_init_tagE, symObjAddr: 0x7C0, symBinAddr: 0x100001788, symSize: 0x2C }
  - { offsetInCU: 0x7881, offset: 0x7881, size: 0x8, addend: 0x0, symName: __ZNSt3__121__unordered_map_equalIiNS_17__hash_value_typeIiiEENS_8equal_toIiEENS_4hashIiEELb1EEC2B7v160006Ev, symObjAddr: 0x7EC, symBinAddr: 0x1000017B4, symSize: 0x14 }
  - { offsetInCU: 0x78A9, offset: 0x78A9, size: 0x8, addend: 0x0, symName: __ZNSt3__113unordered_mapIiiNS_4hashIiEENS_8equal_toIiEENS_9allocatorINS_4pairIKiiEEEEED2B7v160006Ev, symObjAddr: 0x800, symBinAddr: 0x1000017C8, symSize: 0x2C }
  - { offsetInCU: 0x78D1, offset: 0x78D1, size: 0x8, addend: 0x0, symName: __ZNSt3__112__hash_tableINS_17__hash_value_typeIiiEENS_22__unordered_map_hasherIiS2_NS_4hashIiEENS_8equal_toIiEELb1EEENS_21__unordered_map_equalIiS2_S7_S5_Lb1EEENS_9allocatorIS2_EEED1Ev, symObjAddr: 0x82C, symBinAddr: 0x1000017F4, symSize: 0x2C }
  - { offsetInCU: 0x78FB, offset: 0x78FB, size: 0x8, addend: 0x0, symName: __ZNSt3__112__hash_tableINS_17__hash_value_typeIiiEENS_22__unordered_map_hasherIiS2_NS_4hashIiEENS_8equal_toIiEELb1EEENS_21__unordered_map_equalIiS2_S7_S5_Lb1EEENS_9allocatorIS2_EEED2Ev, symObjAddr: 0x858, symBinAddr: 0x100001820, symSize: 0x58 }
  - { offsetInCU: 0x7925, offset: 0x7925, size: 0x8, addend: 0x0, symName: __ZNSt3__112__hash_tableINS_17__hash_value_typeIiiEENS_22__unordered_map_hasherIiS2_NS_4hashIiEENS_8equal_toIiEELb1EEENS_21__unordered_map_equalIiS2_S7_S5_Lb1EEENS_9allocatorIS2_EEE17__deallocate_nodeEPNS_16__hash_node_baseIPNS_11__hash_nodeIS2_PvEEEE, symObjAddr: 0x8B0, symBinAddr: 0x100001878, symSize: 0xA8 }
  - { offsetInCU: 0x798D, offset: 0x798D, size: 0x8, addend: 0x0, symName: __ZNSt3__117__compressed_pairINS_16__hash_node_baseIPNS_11__hash_nodeINS_17__hash_value_typeIiiEEPvEEEENS_9allocatorIS6_EEE5firstB7v160006Ev, symObjAddr: 0x958, symBinAddr: 0x100001920, symSize: 0x24 }
  - { offsetInCU: 0x79B1, offset: 0x79B1, size: 0x8, addend: 0x0, symName: __ZNSt3__110unique_ptrIA_PNS_16__hash_node_baseIPNS_11__hash_nodeINS_17__hash_value_typeIiiEEPvEEEENS_25__bucket_list_deallocatorINS_9allocatorIS9_EEEEED1B7v160006Ev, symObjAddr: 0x98C, symBinAddr: 0x100001954, symSize: 0x2C }
  - { offsetInCU: 0x79D9, offset: 0x79D9, size: 0x8, addend: 0x0, symName: __ZNSt3__112__hash_tableINS_17__hash_value_typeIiiEENS_22__unordered_map_hasherIiS2_NS_4hashIiEENS_8equal_toIiEELb1EEENS_21__unordered_map_equalIiS2_S7_S5_Lb1EEENS_9allocatorIS2_EEE12__node_allocB7v160006Ev, symObjAddr: 0x9B8, symBinAddr: 0x100001980, symSize: 0x28 }
  - { offsetInCU: 0x79FD, offset: 0x79FD, size: 0x8, addend: 0x0, symName: __ZNSt3__116__hash_node_baseIPNS_11__hash_nodeINS_17__hash_value_typeIiiEEPvEEE8__upcastB7v160006Ev, symObjAddr: 0x9E0, symBinAddr: 0x1000019A8, symSize: 0x24 }
  - { offsetInCU: 0x7A21, offset: 0x7A21, size: 0x8, addend: 0x0, symName: __ZNSt3__116allocator_traitsINS_9allocatorINS_11__hash_nodeINS_17__hash_value_typeIiiEEPvEEEEE7destroyB7v160006INS_4pairIKiiEEvvEEvRS7_PT_, symObjAddr: 0xA04, symBinAddr: 0x1000019CC, symSize: 0x14 }
  - { offsetInCU: 0x7A5A, offset: 0x7A5A, size: 0x8, addend: 0x0, symName: __ZNSt3__122__hash_key_value_typesINS_17__hash_value_typeIiiEEE9__get_ptrB7v160006ERS2_, symObjAddr: 0xA18, symBinAddr: 0x1000019E0, symSize: 0x24 }
  - { offsetInCU: 0x7A7C, offset: 0x7A7C, size: 0x8, addend: 0x0, symName: __ZNSt3__116allocator_traitsINS_9allocatorINS_11__hash_nodeINS_17__hash_value_typeIiiEEPvEEEEE10deallocateB7v160006ERS7_PS6_m, symObjAddr: 0xA3C, symBinAddr: 0x100001A04, symSize: 0x34 }
  - { offsetInCU: 0x7ABD, offset: 0x7ABD, size: 0x8, addend: 0x0, symName: __ZNSt3__117__compressed_pairINS_16__hash_node_baseIPNS_11__hash_nodeINS_17__hash_value_typeIiiEEPvEEEENS_9allocatorIS6_EEE6secondB7v160006Ev, symObjAddr: 0xA70, symBinAddr: 0x100001A38, symSize: 0x24 }
  - { offsetInCU: 0x7AE1, offset: 0x7AE1, size: 0x8, addend: 0x0, symName: __ZNSt3__122__compressed_pair_elemINS_9allocatorINS_11__hash_nodeINS_17__hash_value_typeIiiEEPvEEEELi1ELb1EE5__getB7v160006Ev, symObjAddr: 0xA94, symBinAddr: 0x100001A5C, symSize: 0x14 }
  - { offsetInCU: 0x7B05, offset: 0x7B05, size: 0x8, addend: 0x0, symName: __ZNSt3__114pointer_traitsIPNS_16__hash_node_baseIPNS_11__hash_nodeINS_17__hash_value_typeIiiEEPvEEEEE10pointer_toB7v160006ERS8_, symObjAddr: 0xAA8, symBinAddr: 0x100001A70, symSize: 0x14 }
  - { offsetInCU: 0x7B27, offset: 0x7B27, size: 0x8, addend: 0x0, symName: __ZNSt3__117__hash_value_typeIiiE11__get_valueB7v160006Ev, symObjAddr: 0xABC, symBinAddr: 0x100001A84, symSize: 0x24 }
  - { offsetInCU: 0x7B4B, offset: 0x7B4B, size: 0x8, addend: 0x0, symName: __ZNSt3__19allocatorINS_11__hash_nodeINS_17__hash_value_typeIiiEEPvEEE10deallocateB7v160006EPS5_m, symObjAddr: 0xB18, symBinAddr: 0x100001AE0, symSize: 0x44 }
  - { offsetInCU: 0x7B8B, offset: 0x7B8B, size: 0x8, addend: 0x0, symName: __ZNSt3__122__compressed_pair_elemINS_16__hash_node_baseIPNS_11__hash_nodeINS_17__hash_value_typeIiiEEPvEEEELi0ELb0EE5__getB7v160006Ev, symObjAddr: 0xC84, symBinAddr: 0x100001C4C, symSize: 0x14 }
  - { offsetInCU: 0x7BAF, offset: 0x7BAF, size: 0x8, addend: 0x0, symName: __ZNSt3__110unique_ptrIA_PNS_16__hash_node_baseIPNS_11__hash_nodeINS_17__hash_value_typeIiiEEPvEEEENS_25__bucket_list_deallocatorINS_9allocatorIS9_EEEEED2B7v160006Ev, symObjAddr: 0xC98, symBinAddr: 0x100001C60, symSize: 0x30 }
  - { offsetInCU: 0x7BD7, offset: 0x7BD7, size: 0x8, addend: 0x0, symName: __ZNSt3__110unique_ptrIA_PNS_16__hash_node_baseIPNS_11__hash_nodeINS_17__hash_value_typeIiiEEPvEEEENS_25__bucket_list_deallocatorINS_9allocatorIS9_EEEEE5resetB7v160006EDn, symObjAddr: 0xCC8, symBinAddr: 0x100001C90, symSize: 0x6C }
  - { offsetInCU: 0x7C15, offset: 0x7C15, size: 0x8, addend: 0x0, symName: __ZNSt3__117__compressed_pairIPPNS_16__hash_node_baseIPNS_11__hash_nodeINS_17__hash_value_typeIiiEEPvEEEENS_25__bucket_list_deallocatorINS_9allocatorIS9_EEEEE5firstB7v160006Ev, symObjAddr: 0xD34, symBinAddr: 0x100001CFC, symSize: 0x24 }
  - { offsetInCU: 0x7C39, offset: 0x7C39, size: 0x8, addend: 0x0, symName: __ZNSt3__117__compressed_pairIPPNS_16__hash_node_baseIPNS_11__hash_nodeINS_17__hash_value_typeIiiEEPvEEEENS_25__bucket_list_deallocatorINS_9allocatorIS9_EEEEE6secondB7v160006Ev, symObjAddr: 0xD58, symBinAddr: 0x100001D20, symSize: 0x28 }
  - { offsetInCU: 0x7C5D, offset: 0x7C5D, size: 0x8, addend: 0x0, symName: __ZNSt3__125__bucket_list_deallocatorINS_9allocatorIPNS_16__hash_node_baseIPNS_11__hash_nodeINS_17__hash_value_typeIiiEEPvEEEEEEEclB7v160006EPSA_, symObjAddr: 0xD80, symBinAddr: 0x100001D48, symSize: 0x58 }
  - { offsetInCU: 0x7C90, offset: 0x7C90, size: 0x8, addend: 0x0, symName: __ZNSt3__122__compressed_pair_elemIPPNS_16__hash_node_baseIPNS_11__hash_nodeINS_17__hash_value_typeIiiEEPvEEEELi0ELb0EE5__getB7v160006Ev, symObjAddr: 0xDD8, symBinAddr: 0x100001DA0, symSize: 0x14 }
  - { offsetInCU: 0x7CB4, offset: 0x7CB4, size: 0x8, addend: 0x0, symName: __ZNSt3__122__compressed_pair_elemINS_25__bucket_list_deallocatorINS_9allocatorIPNS_16__hash_node_baseIPNS_11__hash_nodeINS_17__hash_value_typeIiiEEPvEEEEEEEELi1ELb0EE5__getB7v160006Ev, symObjAddr: 0xDEC, symBinAddr: 0x100001DB4, symSize: 0x14 }
  - { offsetInCU: 0x7CD8, offset: 0x7CD8, size: 0x8, addend: 0x0, symName: __ZNSt3__116allocator_traitsINS_9allocatorIPNS_16__hash_node_baseIPNS_11__hash_nodeINS_17__hash_value_typeIiiEEPvEEEEEEE10deallocateB7v160006ERSB_PSA_m, symObjAddr: 0xE00, symBinAddr: 0x100001DC8, symSize: 0x34 }
  - { offsetInCU: 0x7D19, offset: 0x7D19, size: 0x8, addend: 0x0, symName: __ZNSt3__125__bucket_list_deallocatorINS_9allocatorIPNS_16__hash_node_baseIPNS_11__hash_nodeINS_17__hash_value_typeIiiEEPvEEEEEEE7__allocB7v160006Ev, symObjAddr: 0xE34, symBinAddr: 0x100001DFC, symSize: 0x24 }
  - { offsetInCU: 0x7D3D, offset: 0x7D3D, size: 0x8, addend: 0x0, symName: __ZNSt3__125__bucket_list_deallocatorINS_9allocatorIPNS_16__hash_node_baseIPNS_11__hash_nodeINS_17__hash_value_typeIiiEEPvEEEEEEE4sizeB7v160006Ev, symObjAddr: 0xE58, symBinAddr: 0x100001E20, symSize: 0x24 }
  - { offsetInCU: 0x7D61, offset: 0x7D61, size: 0x8, addend: 0x0, symName: __ZNSt3__19allocatorIPNS_16__hash_node_baseIPNS_11__hash_nodeINS_17__hash_value_typeIiiEEPvEEEEE10deallocateB7v160006EPS9_m, symObjAddr: 0xE7C, symBinAddr: 0x100001E44, symSize: 0x40 }
  - { offsetInCU: 0x7DA1, offset: 0x7DA1, size: 0x8, addend: 0x0, symName: __ZNSt3__117__compressed_pairImNS_9allocatorIPNS_16__hash_node_baseIPNS_11__hash_nodeINS_17__hash_value_typeIiiEEPvEEEEEEE6secondB7v160006Ev, symObjAddr: 0xEBC, symBinAddr: 0x100001E84, symSize: 0x24 }
  - { offsetInCU: 0x7DC5, offset: 0x7DC5, size: 0x8, addend: 0x0, symName: __ZNSt3__122__compressed_pair_elemINS_9allocatorIPNS_16__hash_node_baseIPNS_11__hash_nodeINS_17__hash_value_typeIiiEEPvEEEEEELi1ELb1EE5__getB7v160006Ev, symObjAddr: 0xEE0, symBinAddr: 0x100001EA8, symSize: 0x14 }
  - { offsetInCU: 0x7DE9, offset: 0x7DE9, size: 0x8, addend: 0x0, symName: __ZNSt3__117__compressed_pairImNS_9allocatorIPNS_16__hash_node_baseIPNS_11__hash_nodeINS_17__hash_value_typeIiiEEPvEEEEEEE5firstB7v160006Ev, symObjAddr: 0xEF4, symBinAddr: 0x100001EBC, symSize: 0x24 }
  - { offsetInCU: 0x7E0D, offset: 0x7E0D, size: 0x8, addend: 0x0, symName: __ZNSt3__122__compressed_pair_elemImLi0ELb0EE5__getB7v160006Ev, symObjAddr: 0xF18, symBinAddr: 0x100001EE0, symSize: 0x14 }
  - { offsetInCU: 0x7E45, offset: 0x7E45, size: 0x8, addend: 0x0, symName: __ZNSt3__112__hash_tableINS_17__hash_value_typeIiiEENS_22__unordered_map_hasherIiS2_NS_4hashIiEENS_8equal_toIiEELb1EEENS_21__unordered_map_equalIiS2_S7_S5_Lb1EEENS_9allocatorIS2_EEE25__emplace_unique_key_argsIiJRKNS_21piecewise_construct_tENS_5tupleIJOiEEENSI_IJEEEEEENS_4pairINS_15__hash_iteratorIPNS_11__hash_nodeIS2_PvEEEEbEERKT_DpOT0_, symObjAddr: 0xF2C, symBinAddr: 0x100001EF4, symSize: 0x4D0 }
  - { offsetInCU: 0x7F4C, offset: 0x7F4C, size: 0x8, addend: 0x0, symName: __ZNKSt3__115__hash_iteratorIPNS_11__hash_nodeINS_17__hash_value_typeIiiEEPvEEEptB7v160006Ev, symObjAddr: 0x142C, symBinAddr: 0x1000023F4, symSize: 0x30 }
  - { offsetInCU: 0x7F70, offset: 0x7F70, size: 0x8, addend: 0x0, symName: __ZNSt3__112__hash_tableINS_17__hash_value_typeIiiEENS_22__unordered_map_hasherIiS2_NS_4hashIiEENS_8equal_toIiEELb1EEENS_21__unordered_map_equalIiS2_S7_S5_Lb1EEENS_9allocatorIS2_EEE13hash_functionB7v160006Ev, symObjAddr: 0x145C, symBinAddr: 0x100002424, symSize: 0x28 }
  - { offsetInCU: 0x7F94, offset: 0x7F94, size: 0x8, addend: 0x0, symName: __ZNKSt3__122__unordered_map_hasherIiNS_17__hash_value_typeIiiEENS_4hashIiEENS_8equal_toIiEELb1EEclB7v160006ERKi, symObjAddr: 0x1484, symBinAddr: 0x10000244C, symSize: 0x30 }
  - { offsetInCU: 0x7FC7, offset: 0x7FC7, size: 0x8, addend: 0x0, symName: __ZNKSt3__112__hash_tableINS_17__hash_value_typeIiiEENS_22__unordered_map_hasherIiS2_NS_4hashIiEENS_8equal_toIiEELb1EEENS_21__unordered_map_equalIiS2_S7_S5_Lb1EEENS_9allocatorIS2_EEE12bucket_countB7v160006Ev, symObjAddr: 0x14B4, symBinAddr: 0x10000247C, symSize: 0x28 }
  - { offsetInCU: 0x7FEB, offset: 0x7FEB, size: 0x8, addend: 0x0, symName: __ZNKSt3__110unique_ptrIA_PNS_16__hash_node_baseIPNS_11__hash_nodeINS_17__hash_value_typeIiiEEPvEEEENS_25__bucket_list_deallocatorINS_9allocatorIS9_EEEEEixB7v160006Em, symObjAddr: 0x1574, symBinAddr: 0x10000253C, symSize: 0x34 }
  - { offsetInCU: 0x801E, offset: 0x801E, size: 0x8, addend: 0x0, symName: __ZNKSt3__116__hash_node_baseIPNS_11__hash_nodeINS_17__hash_value_typeIiiEEPvEEE6__hashB7v160006Ev, symObjAddr: 0x15A8, symBinAddr: 0x100002570, symSize: 0x18 }
  - { offsetInCU: 0x8042, offset: 0x8042, size: 0x8, addend: 0x0, symName: __ZNSt3__112__hash_tableINS_17__hash_value_typeIiiEENS_22__unordered_map_hasherIiS2_NS_4hashIiEENS_8equal_toIiEELb1EEENS_21__unordered_map_equalIiS2_S7_S5_Lb1EEENS_9allocatorIS2_EEE6key_eqB7v160006Ev, symObjAddr: 0x15C0, symBinAddr: 0x100002588, symSize: 0x28 }
  - { offsetInCU: 0x8066, offset: 0x8066, size: 0x8, addend: 0x0, symName: __ZNKSt3__121__unordered_map_equalIiNS_17__hash_value_typeIiiEENS_8equal_toIiEENS_4hashIiEELb1EEclB7v160006ERKS2_RKi, symObjAddr: 0x15E8, symBinAddr: 0x1000025B0, symSize: 0x48 }
  - { offsetInCU: 0x80A8, offset: 0x80A8, size: 0x8, addend: 0x0, symName: __ZNSt3__112__hash_tableINS_17__hash_value_typeIiiEENS_22__unordered_map_hasherIiS2_NS_4hashIiEENS_8equal_toIiEELb1EEENS_21__unordered_map_equalIiS2_S7_S5_Lb1EEENS_9allocatorIS2_EEE21__construct_node_hashIRKNS_21piecewise_construct_tEJNS_5tupleIJOiEEENSI_IJEEEEEENS_10unique_ptrINS_11__hash_nodeIS2_PvEENS_22__hash_node_destructorINSB_ISP_EEEEEEmOT_DpOT0_, symObjAddr: 0x1630, symBinAddr: 0x1000025F8, symSize: 0x150 }
  - { offsetInCU: 0x8142, offset: 0x8142, size: 0x8, addend: 0x0, symName: __ZNSt3__112__hash_tableINS_17__hash_value_typeIiiEENS_22__unordered_map_hasherIiS2_NS_4hashIiEENS_8equal_toIiEELb1EEENS_21__unordered_map_equalIiS2_S7_S5_Lb1EEENS_9allocatorIS2_EEE4sizeB7v160006Ev, symObjAddr: 0x1780, symBinAddr: 0x100002748, symSize: 0x28 }
  - { offsetInCU: 0x8166, offset: 0x8166, size: 0x8, addend: 0x0, symName: __ZNSt3__112__hash_tableINS_17__hash_value_typeIiiEENS_22__unordered_map_hasherIiS2_NS_4hashIiEENS_8equal_toIiEELb1EEENS_21__unordered_map_equalIiS2_S7_S5_Lb1EEENS_9allocatorIS2_EEE15max_load_factorB7v160006Ev, symObjAddr: 0x17A8, symBinAddr: 0x100002770, symSize: 0x28 }
  - { offsetInCU: 0x818A, offset: 0x818A, size: 0x8, addend: 0x0, symName: __ZNSt3__112__hash_tableINS_17__hash_value_typeIiiEENS_22__unordered_map_hasherIiS2_NS_4hashIiEENS_8equal_toIiEELb1EEENS_21__unordered_map_equalIiS2_S7_S5_Lb1EEENS_9allocatorIS2_EEE15__rehash_uniqueB7v160006Em, symObjAddr: 0x17D0, symBinAddr: 0x100002798, symSize: 0x2C }
  - { offsetInCU: 0x81BD, offset: 0x81BD, size: 0x8, addend: 0x0, symName: __Z4ceilB7v160006f, symObjAddr: 0x1878, symBinAddr: 0x100002840, symSize: 0x18 }
  - { offsetInCU: 0x81EB, offset: 0x81EB, size: 0x8, addend: 0x0, symName: __ZNSt3__116__hash_node_baseIPNS_11__hash_nodeINS_17__hash_value_typeIiiEEPvEEE5__ptrB7v160006Ev, symObjAddr: 0x1890, symBinAddr: 0x100002858, symSize: 0x24 }
  - { offsetInCU: 0x820F, offset: 0x820F, size: 0x8, addend: 0x0, symName: __ZNKSt3__110unique_ptrINS_11__hash_nodeINS_17__hash_value_typeIiiEEPvEENS_22__hash_node_destructorINS_9allocatorIS5_EEEEEptB7v160006Ev, symObjAddr: 0x18B4, symBinAddr: 0x10000287C, symSize: 0x28 }
  - { offsetInCU: 0x8233, offset: 0x8233, size: 0x8, addend: 0x0, symName: __ZNKSt3__110unique_ptrINS_11__hash_nodeINS_17__hash_value_typeIiiEEPvEENS_22__hash_node_destructorINS_9allocatorIS5_EEEEE3getB7v160006Ev, symObjAddr: 0x18DC, symBinAddr: 0x1000028A4, symSize: 0x28 }
  - { offsetInCU: 0x8257, offset: 0x8257, size: 0x8, addend: 0x0, symName: __ZNSt3__110unique_ptrINS_11__hash_nodeINS_17__hash_value_typeIiiEEPvEENS_22__hash_node_destructorINS_9allocatorIS5_EEEEE7releaseB7v160006Ev, symObjAddr: 0x1904, symBinAddr: 0x1000028CC, symSize: 0x44 }
  - { offsetInCU: 0x828A, offset: 0x828A, size: 0x8, addend: 0x0, symName: __ZNSt3__110unique_ptrINS_11__hash_nodeINS_17__hash_value_typeIiiEEPvEENS_22__hash_node_destructorINS_9allocatorIS5_EEEEED1B7v160006Ev, symObjAddr: 0x1948, symBinAddr: 0x100002910, symSize: 0x2C }
  - { offsetInCU: 0x82B2, offset: 0x82B2, size: 0x8, addend: 0x0, symName: __ZNSt3__115__hash_iteratorIPNS_11__hash_nodeINS_17__hash_value_typeIiiEEPvEEEC1B7v160006EPNS_16__hash_node_baseIS6_EEPKv, symObjAddr: 0x1974, symBinAddr: 0x10000293C, symSize: 0x3C }
  - { offsetInCU: 0x8302, offset: 0x8302, size: 0x8, addend: 0x0, symName: __ZNSt3__14pairINS_15__hash_iteratorIPNS_11__hash_nodeINS_17__hash_value_typeIiiEEPvEEEEbEC1B7v160006IS8_RbLS5_0EEEOT_OT0_, symObjAddr: 0x19B0, symBinAddr: 0x100002978, symSize: 0x3C }
  - { offsetInCU: 0x835E, offset: 0x835E, size: 0x8, addend: 0x0, symName: __ZNSt3__117__compressed_pairImNS_22__unordered_map_hasherIiNS_17__hash_value_typeIiiEENS_4hashIiEENS_8equal_toIiEELb1EEEE6secondB7v160006Ev, symObjAddr: 0x19EC, symBinAddr: 0x1000029B4, symSize: 0x24 }
  - { offsetInCU: 0x8382, offset: 0x8382, size: 0x8, addend: 0x0, symName: __ZNSt3__122__compressed_pair_elemINS_22__unordered_map_hasherIiNS_17__hash_value_typeIiiEENS_4hashIiEENS_8equal_toIiEELb1EEELi1ELb1EE5__getB7v160006Ev, symObjAddr: 0x1A10, symBinAddr: 0x1000029D8, symSize: 0x14 }
  - { offsetInCU: 0x83A6, offset: 0x83A6, size: 0x8, addend: 0x0, symName: __ZNKSt3__14hashIiEclB7v160006Ei, symObjAddr: 0x1A24, symBinAddr: 0x1000029EC, symSize: 0x18 }
  - { offsetInCU: 0x83D9, offset: 0x83D9, size: 0x8, addend: 0x0, symName: __ZNKSt3__110unique_ptrIA_PNS_16__hash_node_baseIPNS_11__hash_nodeINS_17__hash_value_typeIiiEEPvEEEENS_25__bucket_list_deallocatorINS_9allocatorIS9_EEEEE11get_deleterB7v160006Ev, symObjAddr: 0x1A3C, symBinAddr: 0x100002A04, symSize: 0x24 }
  - { offsetInCU: 0x83FD, offset: 0x83FD, size: 0x8, addend: 0x0, symName: __ZNKSt3__125__bucket_list_deallocatorINS_9allocatorIPNS_16__hash_node_baseIPNS_11__hash_nodeINS_17__hash_value_typeIiiEEPvEEEEEEE4sizeB7v160006Ev, symObjAddr: 0x1A60, symBinAddr: 0x100002A28, symSize: 0x28 }
  - { offsetInCU: 0x8421, offset: 0x8421, size: 0x8, addend: 0x0, symName: __ZNKSt3__117__compressed_pairIPPNS_16__hash_node_baseIPNS_11__hash_nodeINS_17__hash_value_typeIiiEEPvEEEENS_25__bucket_list_deallocatorINS_9allocatorIS9_EEEEE6secondB7v160006Ev, symObjAddr: 0x1A88, symBinAddr: 0x100002A50, symSize: 0x28 }
  - { offsetInCU: 0x8445, offset: 0x8445, size: 0x8, addend: 0x0, symName: __ZNKSt3__122__compressed_pair_elemINS_25__bucket_list_deallocatorINS_9allocatorIPNS_16__hash_node_baseIPNS_11__hash_nodeINS_17__hash_value_typeIiiEEPvEEEEEEEELi1ELb0EE5__getB7v160006Ev, symObjAddr: 0x1AB0, symBinAddr: 0x100002A78, symSize: 0x14 }
  - { offsetInCU: 0x8469, offset: 0x8469, size: 0x8, addend: 0x0, symName: __ZNKSt3__117__compressed_pairImNS_9allocatorIPNS_16__hash_node_baseIPNS_11__hash_nodeINS_17__hash_value_typeIiiEEPvEEEEEEE5firstB7v160006Ev, symObjAddr: 0x1AC4, symBinAddr: 0x100002A8C, symSize: 0x24 }
  - { offsetInCU: 0x848D, offset: 0x848D, size: 0x8, addend: 0x0, symName: __ZNKSt3__122__compressed_pair_elemImLi0ELb0EE5__getB7v160006Ev, symObjAddr: 0x1AE8, symBinAddr: 0x100002AB0, symSize: 0x14 }
  - { offsetInCU: 0x84B1, offset: 0x84B1, size: 0x8, addend: 0x0, symName: __ZNKSt3__117__compressed_pairIPPNS_16__hash_node_baseIPNS_11__hash_nodeINS_17__hash_value_typeIiiEEPvEEEENS_25__bucket_list_deallocatorINS_9allocatorIS9_EEEEE5firstB7v160006Ev, symObjAddr: 0x1AFC, symBinAddr: 0x100002AC4, symSize: 0x24 }
  - { offsetInCU: 0x84D5, offset: 0x84D5, size: 0x8, addend: 0x0, symName: __ZNKSt3__122__compressed_pair_elemIPPNS_16__hash_node_baseIPNS_11__hash_nodeINS_17__hash_value_typeIiiEEPvEEEELi0ELb0EE5__getB7v160006Ev, symObjAddr: 0x1B20, symBinAddr: 0x100002AE8, symSize: 0x14 }
  - { offsetInCU: 0x84F9, offset: 0x84F9, size: 0x8, addend: 0x0, symName: __ZNSt3__117__compressed_pairIfNS_21__unordered_map_equalIiNS_17__hash_value_typeIiiEENS_8equal_toIiEENS_4hashIiEELb1EEEE6secondB7v160006Ev, symObjAddr: 0x1B34, symBinAddr: 0x100002AFC, symSize: 0x24 }
  - { offsetInCU: 0x851D, offset: 0x851D, size: 0x8, addend: 0x0, symName: __ZNSt3__122__compressed_pair_elemINS_21__unordered_map_equalIiNS_17__hash_value_typeIiiEENS_8equal_toIiEENS_4hashIiEELb1EEELi1ELb1EE5__getB7v160006Ev, symObjAddr: 0x1B58, symBinAddr: 0x100002B20, symSize: 0x14 }
  - { offsetInCU: 0x8541, offset: 0x8541, size: 0x8, addend: 0x0, symName: __ZNKSt3__18equal_toIiEclB7v160006ERKiS3_, symObjAddr: 0x1B6C, symBinAddr: 0x100002B34, symSize: 0x34 }
  - { offsetInCU: 0x8583, offset: 0x8583, size: 0x8, addend: 0x0, symName: __ZNKSt3__117__hash_value_typeIiiE11__get_valueB7v160006Ev, symObjAddr: 0x1BA0, symBinAddr: 0x100002B68, symSize: 0x24 }
  - { offsetInCU: 0x85A7, offset: 0x85A7, size: 0x8, addend: 0x0, symName: __ZNSt3__116allocator_traitsINS_9allocatorINS_11__hash_nodeINS_17__hash_value_typeIiiEEPvEEEEE8allocateB7v160006ERS7_m, symObjAddr: 0x1BFC, symBinAddr: 0x100002BC4, symSize: 0x2C }
  - { offsetInCU: 0x85D9, offset: 0x85D9, size: 0x8, addend: 0x0, symName: __ZNSt3__122__hash_node_destructorINS_9allocatorINS_11__hash_nodeINS_17__hash_value_typeIiiEEPvEEEEEC1B7v160006ERS7_b, symObjAddr: 0x1C28, symBinAddr: 0x100002BF0, symSize: 0x48 }
  - { offsetInCU: 0x8624, offset: 0x8624, size: 0x8, addend: 0x0, symName: __ZNSt3__110unique_ptrINS_11__hash_nodeINS_17__hash_value_typeIiiEEPvEENS_22__hash_node_destructorINS_9allocatorIS5_EEEEEC1B7v160006ILb1EvEEPS5_NS_16__dependent_typeINS_27__unique_ptr_deleter_sfinaeIS9_EEXT_EE20__good_rval_ref_typeE, symObjAddr: 0x1C70, symBinAddr: 0x100002C38, symSize: 0x3C }
  - { offsetInCU: 0x8673, offset: 0x8673, size: 0x8, addend: 0x0, symName: __ZNSt3__116allocator_traitsINS_9allocatorINS_11__hash_nodeINS_17__hash_value_typeIiiEEPvEEEEE9constructB7v160006INS_4pairIKiiEEJRKNS_21piecewise_construct_tENS_5tupleIJOiEEENSG_IJEEEEvEEvRS7_PT_DpOT0_, symObjAddr: 0x1CAC, symBinAddr: 0x100002C74, symSize: 0x44 }
  - { offsetInCU: 0x86F1, offset: 0x86F1, size: 0x8, addend: 0x0, symName: __ZNSt3__110unique_ptrINS_11__hash_nodeINS_17__hash_value_typeIiiEEPvEENS_22__hash_node_destructorINS_9allocatorIS5_EEEEE11get_deleterB7v160006Ev, symObjAddr: 0x1CF0, symBinAddr: 0x100002CB8, symSize: 0x24 }
  - { offsetInCU: 0x8715, offset: 0x8715, size: 0x8, addend: 0x0, symName: __ZNSt3__19allocatorINS_11__hash_nodeINS_17__hash_value_typeIiiEEPvEEE8allocateB7v160006Em, symObjAddr: 0x1D14, symBinAddr: 0x100002CDC, symSize: 0x5C }
  - { offsetInCU: 0x8751, offset: 0x8751, size: 0x8, addend: 0x0, symName: __ZNSt3__116allocator_traitsINS_9allocatorINS_11__hash_nodeINS_17__hash_value_typeIiiEEPvEEEEE8max_sizeB7v160006IS7_vEEmRKS7_, symObjAddr: 0x1D70, symBinAddr: 0x100002D38, symSize: 0x24 }
  - { offsetInCU: 0x877E, offset: 0x877E, size: 0x8, addend: 0x0, symName: __ZNKSt3__19allocatorINS_11__hash_nodeINS_17__hash_value_typeIiiEEPvEEE8max_sizeB7v160006Ev, symObjAddr: 0x1E28, symBinAddr: 0x100002DF0, symSize: 0x18 }
  - { offsetInCU: 0x87A2, offset: 0x87A2, size: 0x8, addend: 0x0, symName: __ZNSt3__122__hash_node_destructorINS_9allocatorINS_11__hash_nodeINS_17__hash_value_typeIiiEEPvEEEEEC2B7v160006ERS7_b, symObjAddr: 0x1E90, symBinAddr: 0x100002E58, symSize: 0x38 }
  - { offsetInCU: 0x87E8, offset: 0x87E8, size: 0x8, addend: 0x0, symName: __ZNSt3__110unique_ptrINS_11__hash_nodeINS_17__hash_value_typeIiiEEPvEENS_22__hash_node_destructorINS_9allocatorIS5_EEEEEC2B7v160006ILb1EvEEPS5_NS_16__dependent_typeINS_27__unique_ptr_deleter_sfinaeIS9_EEXT_EE20__good_rval_ref_typeE, symObjAddr: 0x1EC8, symBinAddr: 0x100002E90, symSize: 0x48 }
  - { offsetInCU: 0x8837, offset: 0x8837, size: 0x8, addend: 0x0, symName: __ZNSt3__117__compressed_pairIPNS_11__hash_nodeINS_17__hash_value_typeIiiEEPvEENS_22__hash_node_destructorINS_9allocatorIS5_EEEEEC1B7v160006IRS6_SA_EEOT_OT0_, symObjAddr: 0x1F10, symBinAddr: 0x100002ED8, symSize: 0x3C }
  - { offsetInCU: 0x888D, offset: 0x888D, size: 0x8, addend: 0x0, symName: __ZNSt3__117__compressed_pairIPNS_11__hash_nodeINS_17__hash_value_typeIiiEEPvEENS_22__hash_node_destructorINS_9allocatorIS5_EEEEEC2B7v160006IRS6_SA_EEOT_OT0_, symObjAddr: 0x1F4C, symBinAddr: 0x100002F14, symSize: 0x48 }
  - { offsetInCU: 0x88E3, offset: 0x88E3, size: 0x8, addend: 0x0, symName: __ZNSt3__122__compressed_pair_elemIPNS_11__hash_nodeINS_17__hash_value_typeIiiEEPvEELi0ELb0EEC2B7v160006IRS6_vEEOT_, symObjAddr: 0x1F94, symBinAddr: 0x100002F5C, symSize: 0x24 }
  - { offsetInCU: 0x8923, offset: 0x8923, size: 0x8, addend: 0x0, symName: __ZNSt3__122__compressed_pair_elemINS_22__hash_node_destructorINS_9allocatorINS_11__hash_nodeINS_17__hash_value_typeIiiEEPvEEEEEELi1ELb0EEC2B7v160006IS9_vEEOT_, symObjAddr: 0x1FB8, symBinAddr: 0x100002F80, symSize: 0x24 }
  - { offsetInCU: 0x8963, offset: 0x8963, size: 0x8, addend: 0x0, symName: __ZNSt3__19allocatorINS_11__hash_nodeINS_17__hash_value_typeIiiEEPvEEE9constructB7v160006INS_4pairIKiiEEJRKNS_21piecewise_construct_tENS_5tupleIJOiEEENSE_IJEEEEEEvPT_DpOT0_, symObjAddr: 0x1FDC, symBinAddr: 0x100002FA4, symSize: 0x44 }
  - { offsetInCU: 0x89DD, offset: 0x89DD, size: 0x8, addend: 0x0, symName: __ZNSt3__14pairIKiiEC1B7v160006IJOiEJEEENS_21piecewise_construct_tENS_5tupleIJDpT_EEENS6_IJDpT0_EEE, symObjAddr: 0x2020, symBinAddr: 0x100002FE8, symSize: 0x44 }
  - { offsetInCU: 0x8A42, offset: 0x8A42, size: 0x8, addend: 0x0, symName: __ZNSt3__14pairIKiiEC1B7v160006IJOiEJEJLm0EEJEEENS_21piecewise_construct_tERNS_5tupleIJDpT_EEERNS6_IJDpT0_EEENS_15__tuple_indicesIJXspT1_EEEENSF_IJXspT2_EEEE, symObjAddr: 0x2064, symBinAddr: 0x10000302C, symSize: 0x3C }
  - { offsetInCU: 0x8ACD, offset: 0x8ACD, size: 0x8, addend: 0x0, symName: __ZNSt3__14pairIKiiEC2B7v160006IJOiEJEJLm0EEJEEENS_21piecewise_construct_tERNS_5tupleIJDpT_EEERNS6_IJDpT0_EEENS_15__tuple_indicesIJXspT1_EEEENSF_IJXspT2_EEEE, symObjAddr: 0x20A0, symBinAddr: 0x100003068, symSize: 0x48 }
  - { offsetInCU: 0x8B58, offset: 0x8B58, size: 0x8, addend: 0x0, symName: __ZNSt3__112__tuple_leafILm0EOiLb0EE3getB7v160006Ev, symObjAddr: 0x210C, symBinAddr: 0x1000030D4, symSize: 0x18 }
  - { offsetInCU: 0x8B7C, offset: 0x8B7C, size: 0x8, addend: 0x0, symName: __ZNSt3__117__compressed_pairIPNS_11__hash_nodeINS_17__hash_value_typeIiiEEPvEENS_22__hash_node_destructorINS_9allocatorIS5_EEEEE6secondB7v160006Ev, symObjAddr: 0x2124, symBinAddr: 0x1000030EC, symSize: 0x28 }
  - { offsetInCU: 0x8BA0, offset: 0x8BA0, size: 0x8, addend: 0x0, symName: __ZNSt3__122__compressed_pair_elemINS_22__hash_node_destructorINS_9allocatorINS_11__hash_nodeINS_17__hash_value_typeIiiEEPvEEEEEELi1ELb0EE5__getB7v160006Ev, symObjAddr: 0x214C, symBinAddr: 0x100003114, symSize: 0x14 }
  - { offsetInCU: 0x8BC4, offset: 0x8BC4, size: 0x8, addend: 0x0, symName: __ZNSt3__117__compressed_pairImNS_22__unordered_map_hasherIiNS_17__hash_value_typeIiiEENS_4hashIiEENS_8equal_toIiEELb1EEEE5firstB7v160006Ev, symObjAddr: 0x2160, symBinAddr: 0x100003128, symSize: 0x24 }
  - { offsetInCU: 0x8BE8, offset: 0x8BE8, size: 0x8, addend: 0x0, symName: __ZNSt3__117__compressed_pairIfNS_21__unordered_map_equalIiNS_17__hash_value_typeIiiEENS_8equal_toIiEENS_4hashIiEELb1EEEE5firstB7v160006Ev, symObjAddr: 0x2184, symBinAddr: 0x10000314C, symSize: 0x24 }
  - { offsetInCU: 0x8C0C, offset: 0x8C0C, size: 0x8, addend: 0x0, symName: __ZNSt3__122__compressed_pair_elemIfLi0ELb0EE5__getB7v160006Ev, symObjAddr: 0x21A8, symBinAddr: 0x100003170, symSize: 0x14 }
  - { offsetInCU: 0x8C30, offset: 0x8C30, size: 0x8, addend: 0x0, symName: __ZNSt3__112__hash_tableINS_17__hash_value_typeIiiEENS_22__unordered_map_hasherIiS2_NS_4hashIiEENS_8equal_toIiEELb1EEENS_21__unordered_map_equalIiS2_S7_S5_Lb1EEENS_9allocatorIS2_EEE8__rehashILb1EEEvm, symObjAddr: 0x21BC, symBinAddr: 0x100003184, symSize: 0x1A8 }
  - { offsetInCU: 0x8C7E, offset: 0x8C7E, size: 0x8, addend: 0x0, symName: __ZNSt3__112__hash_tableINS_17__hash_value_typeIiiEENS_22__unordered_map_hasherIiS2_NS_4hashIiEENS_8equal_toIiEELb1EEENS_21__unordered_map_equalIiS2_S7_S5_Lb1EEENS_9allocatorIS2_EEE11__do_rehashILb1EEEvm, symObjAddr: 0x2364, symBinAddr: 0x10000332C, symSize: 0x290 }
  - { offsetInCU: 0x8D5F, offset: 0x8D5F, size: 0x8, addend: 0x0, symName: __ZNSt3__110unique_ptrIA_PNS_16__hash_node_baseIPNS_11__hash_nodeINS_17__hash_value_typeIiiEEPvEEEENS_25__bucket_list_deallocatorINS_9allocatorIS9_EEEEE11get_deleterB7v160006Ev, symObjAddr: 0x2670, symBinAddr: 0x100003638, symSize: 0x24 }
  - { offsetInCU: 0x8D83, offset: 0x8D83, size: 0x8, addend: 0x0, symName: __ZNSt3__110unique_ptrIA_PNS_16__hash_node_baseIPNS_11__hash_nodeINS_17__hash_value_typeIiiEEPvEEEENS_25__bucket_list_deallocatorINS_9allocatorIS9_EEEEE5resetB7v160006IPS9_EENS_9enable_ifIXsr28_CheckArrayPointerConversionIT_EE5valueEvE4typeESJ_, symObjAddr: 0x2694, symBinAddr: 0x10000365C, symSize: 0x78 }
  - { offsetInCU: 0x8DCE, offset: 0x8DCE, size: 0x8, addend: 0x0, symName: __ZNSt3__116allocator_traitsINS_9allocatorIPNS_16__hash_node_baseIPNS_11__hash_nodeINS_17__hash_value_typeIiiEEPvEEEEEEE8allocateB7v160006ERSB_m, symObjAddr: 0x270C, symBinAddr: 0x1000036D4, symSize: 0x2C }
  - { offsetInCU: 0x8E00, offset: 0x8E00, size: 0x8, addend: 0x0, symName: __ZNSt3__19allocatorIPNS_16__hash_node_baseIPNS_11__hash_nodeINS_17__hash_value_typeIiiEEPvEEEEE8allocateB7v160006Em, symObjAddr: 0x2738, symBinAddr: 0x100003700, symSize: 0x58 }
  - { offsetInCU: 0x8E3C, offset: 0x8E3C, size: 0x8, addend: 0x0, symName: __ZNSt3__116allocator_traitsINS_9allocatorIPNS_16__hash_node_baseIPNS_11__hash_nodeINS_17__hash_value_typeIiiEEPvEEEEEEE8max_sizeB7v160006ISB_vEEmRKSB_, symObjAddr: 0x2790, symBinAddr: 0x100003758, symSize: 0x24 }
  - { offsetInCU: 0x8E69, offset: 0x8E69, size: 0x8, addend: 0x0, symName: __ZNKSt3__19allocatorIPNS_16__hash_node_baseIPNS_11__hash_nodeINS_17__hash_value_typeIiiEEPvEEEEE8max_sizeB7v160006Ev, symObjAddr: 0x27B4, symBinAddr: 0x10000377C, symSize: 0x14 }
  - { offsetInCU: 0x8E97, offset: 0x8E97, size: 0x8, addend: 0x0, symName: __ZNKSt3__16__lessImmEclB7v160006ERKmS3_, symObjAddr: 0x2838, symBinAddr: 0x100003800, symSize: 0x34 }
  - { offsetInCU: 0x8ED7, offset: 0x8ED7, size: 0x8, addend: 0x0, symName: __ZNKSt3__117__compressed_pairIPNS_11__hash_nodeINS_17__hash_value_typeIiiEEPvEENS_22__hash_node_destructorINS_9allocatorIS5_EEEEE5firstB7v160006Ev, symObjAddr: 0x286C, symBinAddr: 0x100003834, symSize: 0x24 }
  - { offsetInCU: 0x8EFB, offset: 0x8EFB, size: 0x8, addend: 0x0, symName: __ZNKSt3__122__compressed_pair_elemIPNS_11__hash_nodeINS_17__hash_value_typeIiiEEPvEELi0ELb0EE5__getB7v160006Ev, symObjAddr: 0x2890, symBinAddr: 0x100003858, symSize: 0x14 }
  - { offsetInCU: 0x8F1F, offset: 0x8F1F, size: 0x8, addend: 0x0, symName: __ZNSt3__117__compressed_pairIPNS_11__hash_nodeINS_17__hash_value_typeIiiEEPvEENS_22__hash_node_destructorINS_9allocatorIS5_EEEEE5firstB7v160006Ev, symObjAddr: 0x28A4, symBinAddr: 0x10000386C, symSize: 0x24 }
  - { offsetInCU: 0x8F43, offset: 0x8F43, size: 0x8, addend: 0x0, symName: __ZNSt3__122__compressed_pair_elemIPNS_11__hash_nodeINS_17__hash_value_typeIiiEEPvEELi0ELb0EE5__getB7v160006Ev, symObjAddr: 0x28C8, symBinAddr: 0x100003890, symSize: 0x14 }
  - { offsetInCU: 0x8F67, offset: 0x8F67, size: 0x8, addend: 0x0, symName: __ZNSt3__110unique_ptrINS_11__hash_nodeINS_17__hash_value_typeIiiEEPvEENS_22__hash_node_destructorINS_9allocatorIS5_EEEEED2B7v160006Ev, symObjAddr: 0x28DC, symBinAddr: 0x1000038A4, symSize: 0x30 }
  - { offsetInCU: 0x8F8F, offset: 0x8F8F, size: 0x8, addend: 0x0, symName: __ZNSt3__110unique_ptrINS_11__hash_nodeINS_17__hash_value_typeIiiEEPvEENS_22__hash_node_destructorINS_9allocatorIS5_EEEEE5resetB7v160006EPS5_, symObjAddr: 0x290C, symBinAddr: 0x1000038D4, symSize: 0x78 }
  - { offsetInCU: 0x8FD1, offset: 0x8FD1, size: 0x8, addend: 0x0, symName: __ZNSt3__122__hash_node_destructorINS_9allocatorINS_11__hash_nodeINS_17__hash_value_typeIiiEEPvEEEEEclB7v160006EPS6_, symObjAddr: 0x2984, symBinAddr: 0x10000394C, symSize: 0x94 }
  - { offsetInCU: 0x9004, offset: 0x9004, size: 0x8, addend: 0x0, symName: __ZNSt3__115__hash_iteratorIPNS_11__hash_nodeINS_17__hash_value_typeIiiEEPvEEEC2B7v160006EPNS_16__hash_node_baseIS6_EEPKv, symObjAddr: 0x2A18, symBinAddr: 0x1000039E0, symSize: 0x24 }
  - { offsetInCU: 0x904A, offset: 0x904A, size: 0x8, addend: 0x0, symName: __ZNSt3__14pairINS_15__hash_iteratorIPNS_11__hash_nodeINS_17__hash_value_typeIiiEEPvEEEEbEC2B7v160006IS8_RbLS5_0EEEOT_OT0_, symObjAddr: 0x2A3C, symBinAddr: 0x100003A04, symSize: 0x38 }
  - { offsetInCU: 0x90A6, offset: 0x90A6, size: 0x8, addend: 0x0, symName: __ZNSt3__15tupleIJOiEEC1B7v160006IJiELi0EEEDpOT_, symObjAddr: 0x2A74, symBinAddr: 0x100003A3C, symSize: 0x34 }
  - { offsetInCU: 0x90EE, offset: 0x90EE, size: 0x8, addend: 0x0, symName: __ZNSt3__15tupleIJOiEEC2B7v160006IJiELi0EEEDpOT_, symObjAddr: 0x2AA8, symBinAddr: 0x100003A70, symSize: 0x34 }
  - { offsetInCU: 0x9136, offset: 0x9136, size: 0x8, addend: 0x0, symName: __ZNSt3__112__tuple_implINS_15__tuple_indicesIJLm0EEEEJOiEEC1B7v160006IJLm0EEJS3_EJEJEJiEEENS1_IJXspT_EEEENS_13__tuple_typesIJDpT0_EEENS1_IJXspT1_EEEENS7_IJDpT2_EEEDpOT3_, symObjAddr: 0x2ADC, symBinAddr: 0x100003AA4, symSize: 0x34 }
  - { offsetInCU: 0x91C5, offset: 0x91C5, size: 0x8, addend: 0x0, symName: __ZNSt3__112__tuple_implINS_15__tuple_indicesIJLm0EEEEJOiEEC2B7v160006IJLm0EEJS3_EJEJEJiEEENS1_IJXspT_EEEENS_13__tuple_typesIJDpT0_EEENS1_IJXspT1_EEEENS7_IJDpT2_EEEDpOT3_, symObjAddr: 0x2B10, symBinAddr: 0x100003AD8, symSize: 0x34 }
  - { offsetInCU: 0x9254, offset: 0x9254, size: 0x8, addend: 0x0, symName: __ZNSt3__112__tuple_leafILm0EOiLb0EEC2B7v160006IivEEOT_, symObjAddr: 0x2B44, symBinAddr: 0x100003B0C, symSize: 0x20 }
  - { offsetInCU: 0x9295, offset: 0x9295, size: 0x8, addend: 0x0, symName: __ZNSt3__114pointer_traitsIPNS_17__hash_value_typeIiiEEE10pointer_toB7v160006ERS2_, symObjAddr: 0x2B64, symBinAddr: 0x100003B2C, symSize: 0x14 }
...
